(dp0
S'ACC'
p1
ccopy_reg
_reconstructor
p2
(cMakeVocab1
Vocab
p3
c__builtin__
object
p4
Ntp5
Rp6
(dp7
S'count'
p8
I33714
sS'index'
p9
I0
sS'sample_int'
p10
L4294967296L
sS'code'
p11
cnumpy.core.multiarray
_reconstruct
p12
(cnumpy
ndarray
p13
(I0
tp14
S'b'
p15
tp16
Rp17
(I1
(L6L
tp18
cnumpy
dtype
p19
(S'u1'
p20
I0
I1
tp21
Rp22
(I3
S'|'
p23
NNNI-1
I-1
I0
tp24
bI00
S'\x01\x00\x00\x00\x00\x00'
p25
tp26
bsS'point'
p27
g12
(g13
(I0
tp28
g15
tp29
Rp30
(I1
(L6L
tp31
g19
(S'u4'
p32
I0
I1
tp33
Rp34
(I3
S'<'
p35
NNNI-1
I-1
I0
tp36
bI00
S'>\x00\x00\x00=\x00\x00\x00:\x00\x00\x004\x00\x00\x00(\x00\x00\x00\x10\x00\x00\x00'
p37
tp38
bsbsS'ATG'
p39
g2
(g3
g4
Ntp40
Rp41
(dp42
g8
I31657
sg9
I1
sg10
L4294967296L
sg11
g12
(g13
(I0
tp43
g15
tp44
Rp45
(I1
(L6L
tp46
g22
I00
S'\x00\x01\x00\x01\x00\x01'
p47
tp48
bsg27
g12
(g13
(I0
tp49
g15
tp50
Rp51
(I1
(L6L
tp52
g34
I00
S'>\x00\x00\x00<\x00\x00\x009\x00\x00\x002\x00\x00\x00%\x00\x00\x00\n\x00\x00\x00'
p53
tp54
bsbsS'AAG'
p55
g2
(g3
g4
Ntp56
Rp57
(dp58
g8
I32596
sg9
I2
sg10
L4294967296L
sg11
g12
(g13
(I0
tp59
g15
tp60
Rp61
(I1
(L6L
tp62
g22
I00
S'\x00\x01\x01\x00\x01\x00'
p63
tp64
bsg27
g12
(g13
(I0
tp65
g15
tp66
Rp67
(I1
(L6L
tp68
g34
I00
S'>\x00\x00\x00<\x00\x00\x009\x00\x00\x003\x00\x00\x00&\x00\x00\x00\r\x00\x00\x00'
p69
tp70
bsbsS'ACG'
p71
g2
(g3
g4
Ntp72
Rp73
(dp74
g8
I34676
sg9
I3
sg10
L4294967296L
sg11
g12
(g13
(I0
tp75
g15
tp76
Rp77
(I1
(L6L
tp78
g22
I00
S'\x01\x00\x00\x00\x01\x01'
p79
tp80
bsg27
g12
(g13
(I0
tp81
g15
tp82
Rp83
(I1
(L6L
tp84
g34
I00
S'>\x00\x00\x00=\x00\x00\x00:\x00\x00\x004\x00\x00\x00(\x00\x00\x00\x11\x00\x00\x00'
p85
tp86
bsbsS'ATC'
p87
g2
(g3
g4
Ntp88
Rp89
(dp90
g8
I40048
sg9
I4
sg10
L4294967296L
sg11
g12
(g13
(I0
tp91
g15
tp92
Rp93
(I1
(L6L
tp94
g22
I00
S'\x01\x01\x00\x01\x00\x00'
p95
tp96
bsg27
g12
(g13
(I0
tp97
g15
tp98
Rp99
(I1
(L6L
tp100
g34
I00
S'>\x00\x00\x00=\x00\x00\x00;\x00\x00\x006\x00\x00\x00-\x00\x00\x00\x1a\x00\x00\x00'
p101
tp102
bsbsS'AAC'
p103
g2
(g3
g4
Ntp104
Rp105
(dp106
g8
I25036
sg9
I5
sg10
L4294967296L
sg11
g12
(g13
(I0
tp107
g15
tp108
Rp109
(I1
(L6L
tp110
g22
I00
S'\x00\x00\x00\x00\x00\x01'
p111
tp112
bsg27
g12
(g13
(I0
tp113
g15
tp114
Rp115
(I1
(L6L
tp116
g34
I00
S'>\x00\x00\x00<\x00\x00\x008\x00\x00\x000\x00\x00\x00 \x00\x00\x00\x04\x00\x00\x00'
p117
tp118
bsbsS'ATA'
p119
g2
(g3
g4
Ntp120
Rp121
(dp122
g8
I27457
sg9
I6
sg10
L4294967296L
sg11
g12
(g13
(I0
tp123
g15
tp124
Rp125
(I1
(L6L
tp126
g22
I00
S'\x00\x00\x01\x00\x01\x01'
p127
tp128
bsg27
g12
(g13
(I0
tp129
g15
tp130
Rp131
(I1
(L6L
tp132
g34
I00
S'>\x00\x00\x00<\x00\x00\x008\x00\x00\x001\x00\x00\x00"\x00\x00\x00\x05\x00\x00\x00'
p133
tp134
bsbsS'AGG'
p135
g2
(g3
g4
Ntp136
Rp137
(dp138
g8
I30759
sg9
I7
sg10
L4294967296L
sg11
g12
(g13
(I0
tp139
g15
tp140
Rp141
(I1
(L6L
tp142
g22
I00
S'\x00\x01\x00\x00\x01\x00'
p143
tp144
bsg27
g12
(g13
(I0
tp145
g15
tp146
Rp147
(I1
(L6L
tp148
g34
I00
S'>\x00\x00\x00<\x00\x00\x009\x00\x00\x002\x00\x00\x00$\x00\x00\x00\t\x00\x00\x00'
p149
tp150
bsbsS'CCT'
p151
g2
(g3
g4
Ntp152
Rp153
(dp154
g8
I30881
sg9
I8
sg10
L4294967296L
sg11
g12
(g13
(I0
tp155
g15
tp156
Rp157
(I1
(L6L
tp158
g22
I00
S'\x00\x01\x00\x00\x01\x01'
p159
tp160
bsg27
g147
sbsS'ACT'
p161
g2
(g3
g4
Ntp162
Rp163
(dp164
g8
I22007
sg9
I9
sg10
L4294967296L
sg11
g12
(g13
(I0
tp165
g15
tp166
Rp167
(I1
(L7L
tp168
g22
I00
S'\x01\x01\x00\x01\x01\x01\x01'
p169
tp170
bsg27
g12
(g13
(I0
tp171
g15
tp172
Rp173
(I1
(L7L
tp174
g34
I00
S'>\x00\x00\x00=\x00\x00\x00;\x00\x00\x006\x00\x00\x00-\x00\x00\x00\x1b\x00\x00\x00\x01\x00\x00\x00'
p175
tp176
bsbsS'AGC'
p177
g2
(g3
g4
Ntp178
Rp179
(dp180
g8
I35449
sg9
I10
sg10
L4294967296L
sg11
g12
(g13
(I0
tp181
g15
tp182
Rp183
(I1
(L6L
tp184
g22
I00
S'\x01\x00\x00\x01\x01\x01'
p185
tp186
bsg27
g12
(g13
(I0
tp187
g15
tp188
Rp189
(I1
(L6L
tp190
g34
I00
S'>\x00\x00\x00=\x00\x00\x00:\x00\x00\x004\x00\x00\x00)\x00\x00\x00\x13\x00\x00\x00'
p191
tp192
bsbsS'ACA'
p193
g2
(g3
g4
Ntp194
Rp195
(dp196
g8
I28467
sg9
I11
sg10
L4294967296L
sg11
g12
(g13
(I0
tp197
g15
tp198
Rp199
(I1
(L6L
tp200
g22
I00
S'\x00\x00\x01\x01\x01\x01'
p201
tp202
bsg27
g12
(g13
(I0
tp203
g15
tp204
Rp205
(I1
(L6L
tp206
g34
I00
S'>\x00\x00\x00<\x00\x00\x008\x00\x00\x001\x00\x00\x00#\x00\x00\x00\x07\x00\x00\x00'
p207
tp208
bsbsS'AGA'
p209
g2
(g3
g4
Ntp210
Rp211
(dp212
g8
I37414
sg9
I12
sg10
L4294967296L
sg11
g12
(g13
(I0
tp213
g15
tp214
Rp215
(I1
(L6L
tp216
g22
I00
S'\x01\x00\x01\x01\x01\x01'
p217
tp218
bsg27
g12
(g13
(I0
tp219
g15
tp220
Rp221
(I1
(L6L
tp222
g34
I00
S'>\x00\x00\x00=\x00\x00\x00:\x00\x00\x005\x00\x00\x00+\x00\x00\x00\x17\x00\x00\x00'
p223
tp224
bsbsS'CAT'
p225
g2
(g3
g4
Ntp226
Rp227
(dp228
g8
I31632
sg9
I13
sg10
L4294967296L
sg11
g12
(g13
(I0
tp229
g15
tp230
Rp231
(I1
(L6L
tp232
g22
I00
S'\x00\x01\x00\x01\x00\x00'
p233
tp234
bsg27
g51
sbsS'AAT'
p235
g2
(g3
g4
Ntp236
Rp237
(dp238
g8
I30169
sg9
I14
sg10
L4294967296L
sg11
g12
(g13
(I0
tp239
g15
tp240
Rp241
(I1
(L6L
tp242
g22
I00
S'\x00\x01\x00\x00\x00\x01'
p243
tp244
bsg27
g12
(g13
(I0
tp245
g15
tp246
Rp247
(I1
(L6L
tp248
g34
I00
S'>\x00\x00\x00<\x00\x00\x009\x00\x00\x002\x00\x00\x00$\x00\x00\x00\x08\x00\x00\x00'
p249
tp250
bsbsS'ATT'
p251
g2
(g3
g4
Ntp252
Rp253
(dp254
g8
I30105
sg9
I15
sg10
L4294967296L
sg11
g12
(g13
(I0
tp255
g15
tp256
Rp257
(I1
(L6L
tp258
g22
I00
S'\x00\x01\x00\x00\x00\x00'
p259
tp260
bsg27
g247
sbsS'CTG'
p261
g2
(g3
g4
Ntp262
Rp263
(dp264
g8
I35696
sg9
I16
sg10
L4294967296L
sg11
g12
(g13
(I0
tp265
g15
tp266
Rp267
(I1
(L6L
tp268
g22
I00
S'\x01\x00\x01\x00\x00\x01'
p269
tp270
bsg27
g12
(g13
(I0
tp271
g15
tp272
Rp273
(I1
(L6L
tp274
g34
I00
S'>\x00\x00\x00=\x00\x00\x00:\x00\x00\x005\x00\x00\x00*\x00\x00\x00\x14\x00\x00\x00'
p275
tp276
bsbsS'CTA'
p277
g2
(g3
g4
Ntp278
Rp279
(dp280
g8
I20043
sg9
I17
sg10
L4294967296L
sg11
g12
(g13
(I0
tp281
g15
tp282
Rp283
(I1
(L7L
tp284
g22
I00
S'\x01\x01\x00\x01\x00\x01\x00'
p285
tp286
bsg27
g12
(g13
(I0
tp287
g15
tp288
Rp289
(I1
(L7L
tp290
g34
I00
S'>\x00\x00\x00=\x00\x00\x00;\x00\x00\x006\x00\x00\x00-\x00\x00\x00\x1a\x00\x00\x00\x00\x00\x00\x00'
p291
tp292
bsbsS'CTC'
p293
g2
(g3
g4
Ntp294
Rp295
(dp296
g8
I37956
sg9
I18
sg10
L4294967296L
sg11
g12
(g13
(I0
tp297
g15
tp298
Rp299
(I1
(L6L
tp300
g22
I00
S'\x01\x01\x00\x00\x01\x01'
p301
tp302
bsg27
g12
(g13
(I0
tp303
g15
tp304
Rp305
(I1
(L6L
tp306
g34
I00
S'>\x00\x00\x00=\x00\x00\x00;\x00\x00\x006\x00\x00\x00,\x00\x00\x00\x19\x00\x00\x00'
p307
tp308
bsbsS'CAC'
p309
g2
(g3
g4
Ntp310
Rp311
(dp312
g8
I34856
sg9
I19
sg10
L4294967296L
sg11
g12
(g13
(I0
tp313
g15
tp314
Rp315
(I1
(L6L
tp316
g22
I00
S'\x01\x00\x00\x01\x00\x01'
p317
tp318
bsg27
g12
(g13
(I0
tp319
g15
tp320
Rp321
(I1
(L6L
tp322
g34
I00
S'>\x00\x00\x00=\x00\x00\x00:\x00\x00\x004\x00\x00\x00)\x00\x00\x00\x12\x00\x00\x00'
p323
tp324
bsbsS'AAA'
p325
g2
(g3
g4
Ntp326
Rp327
(dp328
g8
I46674
sg9
I20
sg10
L4294967296L
sg11
g12
(g13
(I0
tp329
g15
tp330
Rp331
(I1
(L6L
tp332
g22
I00
S'\x01\x01\x01\x00\x01\x00'
p333
tp334
bsg27
g12
(g13
(I0
tp335
g15
tp336
Rp337
(I1
(L6L
tp338
g34
I00
S'>\x00\x00\x00=\x00\x00\x00;\x00\x00\x007\x00\x00\x00.\x00\x00\x00\x1d\x00\x00\x00'
p339
tp340
bsbsS'CCG'
p341
g2
(g3
g4
Ntp342
Rp343
(dp344
g8
I52674
sg9
I21
sg10
L4294967296L
sg11
g12
(g13
(I0
tp345
g15
tp346
Rp347
(I1
(L5L
tp348
g22
I00
S'\x00\x00\x01\x00\x00'
p349
tp350
bsg27
g12
(g13
(I0
tp351
g15
tp352
Rp353
(I1
(L5L
tp354
g34
I00
S'>\x00\x00\x00<\x00\x00\x008\x00\x00\x001\x00\x00\x00"\x00\x00\x00'
p355
tp356
bsbsS'AGT'
p357
g2
(g3
g4
Ntp358
Rp359
(dp360
g8
I21974
sg9
I29
sg10
L4294967296L
sg11
g12
(g13
(I0
tp361
g15
tp362
Rp363
(I1
(L7L
tp364
g22
I00
S'\x01\x01\x00\x01\x01\x01\x00'
p365
tp366
bsg27
g173
sbsS'CCA'
p367
g2
(g3
g4
Ntp368
Rp369
(dp370
g8
I32825
sg9
I23
sg10
L4294967296L
sg11
g12
(g13
(I0
tp371
g15
tp372
Rp373
(I1
(L6L
tp374
g22
I00
S'\x00\x01\x01\x01\x00\x00'
p375
tp376
bsg27
g12
(g13
(I0
tp377
g15
tp378
Rp379
(I1
(L6L
tp380
g34
I00
S">\x00\x00\x00<\x00\x00\x009\x00\x00\x003\x00\x00\x00'\x00\x00\x00\x0e\x00\x00\x00"
p381
tp382
bsbsS'CAA'
p383
g2
(g3
g4
Ntp384
Rp385
(dp386
g8
I28097
sg9
I24
sg10
L4294967296L
sg11
g12
(g13
(I0
tp387
g15
tp388
Rp389
(I1
(L6L
tp390
g22
I00
S'\x00\x00\x01\x01\x00\x01'
p391
tp392
bsg27
g12
(g13
(I0
tp393
g15
tp394
Rp395
(I1
(L6L
tp396
g34
I00
S'>\x00\x00\x00<\x00\x00\x008\x00\x00\x001\x00\x00\x00#\x00\x00\x00\x06\x00\x00\x00'
p397
tp398
bsbsS'CCC'
p399
g2
(g3
g4
Ntp400
Rp401
(dp402
g8
I31832
sg9
I25
sg10
L4294967296L
sg11
g12
(g13
(I0
tp403
g15
tp404
Rp405
(I1
(L6L
tp406
g22
I00
S'\x00\x01\x00\x01\x01\x01'
p407
tp408
bsg27
g12
(g13
(I0
tp409
g15
tp410
Rp411
(I1
(L6L
tp412
g34
I00
S'>\x00\x00\x00<\x00\x00\x009\x00\x00\x002\x00\x00\x00%\x00\x00\x00\x0b\x00\x00\x00'
p413
tp414
bsbsS'CTT'
p415
g2
(g3
g4
Ntp416
Rp417
(dp418
g8
I32785
sg9
I36
sg10
L4294967296L
sg11
g12
(g13
(I0
tp419
g15
tp420
Rp421
(I1
(L6L
tp422
g22
I00
S'\x00\x01\x01\x00\x01\x01'
p423
tp424
bsg27
g67
sbsS'TAT'
p425
g2
(g3
g4
Ntp426
Rp427
(dp428
g8
I27168
sg9
I27
sg10
L4294967296L
sg11
g12
(g13
(I0
tp429
g15
tp430
Rp431
(I1
(L6L
tp432
g22
I00
S'\x00\x00\x01\x00\x01\x00'
p433
tp434
bsg27
g131
sbsS'GGT'
p435
g2
(g3
g4
Ntp436
Rp437
(dp438
g8
I33610
sg9
I28
sg10
L4294967296L
sg11
g12
(g13
(I0
tp439
g15
tp440
Rp441
(I1
(L6L
tp442
g22
I00
S'\x00\x01\x01\x01\x01\x01'
p443
tp444
bsg27
g12
(g13
(I0
tp445
g15
tp446
Rp447
(I1
(L6L
tp448
g34
I00
S">\x00\x00\x00<\x00\x00\x009\x00\x00\x003\x00\x00\x00'\x00\x00\x00\x0f\x00\x00\x00"
p449
tp450
bsbsS'TGT'
p451
g2
(g3
g4
Ntp452
Rp453
(dp454
g8
I28344
sg9
I30
sg10
L4294967296L
sg11
g12
(g13
(I0
tp455
g15
tp456
Rp457
(I1
(L6L
tp458
g22
I00
S'\x00\x00\x01\x01\x01\x00'
p459
tp460
bsg27
g205
sbsS'CGA'
p461
g2
(g3
g4
Ntp462
Rp463
(dp464
g8
I47077
sg9
I31
sg10
L4294967296L
sg11
g12
(g13
(I0
tp465
g15
tp466
Rp467
(I1
(L6L
tp468
g22
I00
S'\x01\x01\x01\x01\x00\x01'
p469
tp470
bsg27
g12
(g13
(I0
tp471
g15
tp472
Rp473
(I1
(L6L
tp474
g34
I00
S'>\x00\x00\x00=\x00\x00\x00;\x00\x00\x007\x00\x00\x00/\x00\x00\x00\x1e\x00\x00\x00'
p475
tp476
bsbsS'CAG'
p477
g2
(g3
g4
Ntp478
Rp479
(dp480
g8
I35400
sg9
I32
sg10
L4294967296L
sg11
g12
(g13
(I0
tp481
g15
tp482
Rp483
(I1
(L6L
tp484
g22
I00
S'\x01\x00\x00\x01\x01\x00'
p485
tp486
bsg27
g189
sbsS'CGC'
p487
g2
(g3
g4
Ntp488
Rp489
(dp490
g8
I51720
sg9
I33
sg10
L4294967296L
sg11
g12
(g13
(I0
tp491
g15
tp492
Rp493
(I1
(L5L
tp494
g22
I00
S'\x00\x00\x00\x01\x00'
p495
tp496
bsg27
g12
(g13
(I0
tp497
g15
tp498
Rp499
(I1
(L5L
tp500
g34
I00
S'>\x00\x00\x00<\x00\x00\x008\x00\x00\x000\x00\x00\x00!\x00\x00\x00'
p501
tp502
bsbsS'GAT'
p503
g2
(g3
g4
Ntp504
Rp505
(dp506
g8
I40300
sg9
I34
sg10
L4294967296L
sg11
g12
(g13
(I0
tp507
g15
tp508
Rp509
(I1
(L6L
tp510
g22
I00
S'\x01\x01\x00\x01\x01\x00'
p511
tp512
bsg27
g12
(g13
(I0
tp513
g15
tp514
Rp515
(I1
(L6L
tp516
g34
I00
S'>\x00\x00\x00=\x00\x00\x00;\x00\x00\x006\x00\x00\x00-\x00\x00\x00\x1b\x00\x00\x00'
p517
tp518
bsbsS'CGG'
p519
g2
(g3
g4
Ntp520
Rp521
(dp522
g8
I52499
sg9
I35
sg10
L4294967296L
sg11
g12
(g13
(I0
tp523
g15
tp524
Rp525
(I1
(L5L
tp526
g22
I00
S'\x00\x00\x00\x01\x01'
p527
tp528
bsg27
g499
sbsS'TTT'
p529
g2
(g3
g4
Ntp530
Rp531
(dp532
g8
I46953
sg9
I22
sg10
L4294967296L
sg11
g12
(g13
(I0
tp533
g15
tp534
Rp535
(I1
(L6L
tp536
g22
I00
S'\x01\x01\x01\x01\x00\x00'
p537
tp538
bsg27
g473
sbsS'TGC'
p539
g2
(g3
g4
Ntp540
Rp541
(dp542
g8
I36344
sg9
I37
sg10
L4294967296L
sg11
g12
(g13
(I0
tp543
g15
tp544
Rp545
(I1
(L6L
tp546
g22
I00
S'\x01\x00\x01\x01\x00\x00'
p547
tp548
bsg27
g12
(g13
(I0
tp549
g15
tp550
Rp551
(I1
(L6L
tp552
g34
I00
S'>\x00\x00\x00=\x00\x00\x00:\x00\x00\x005\x00\x00\x00+\x00\x00\x00\x16\x00\x00\x00'
p553
tp554
bsbsS'GGG'
p555
g2
(g3
g4
Ntp556
Rp557
(dp558
g8
I31780
sg9
I38
sg10
L4294967296L
sg11
g12
(g13
(I0
tp559
g15
tp560
Rp561
(I1
(L6L
tp562
g22
I00
S'\x00\x01\x00\x01\x01\x00'
p563
tp564
bsg27
g411
sbsS'TAG'
p565
g2
(g3
g4
Ntp566
Rp567
(dp568
g8
I20077
sg9
I26
sg10
L4294967296L
sg11
g12
(g13
(I0
tp569
g15
tp570
Rp571
(I1
(L7L
tp572
g22
I00
S'\x01\x01\x00\x01\x00\x01\x01'
p573
tp574
bsg27
g289
sbsS'GGA'
p575
g2
(g3
g4
Ntp576
Rp577
(dp578
g8
I33579
sg9
I40
sg10
L4294967296L
sg11
g12
(g13
(I0
tp579
g15
tp580
Rp581
(I1
(L6L
tp582
g22
I00
S'\x00\x01\x01\x01\x01\x00'
p583
tp584
bsg27
g447
sbsS'TGG'
p585
g2
(g3
g4
Ntp586
Rp587
(dp588
g8
I32900
sg9
I41
sg10
L4294967296L
sg11
g12
(g13
(I0
tp589
g15
tp590
Rp591
(I1
(L6L
tp592
g22
I00
S'\x00\x01\x01\x01\x00\x01'
p593
tp594
bsg27
g379
sbsS'GGC'
p595
g2
(g3
g4
Ntp596
Rp597
(dp598
g8
I49033
sg9
I42
sg10
L4294967296L
sg11
g12
(g13
(I0
tp599
g15
tp600
Rp601
(I1
(L6L
tp602
g22
I00
S'\x01\x01\x01\x01\x01\x01'
p603
tp604
bsg27
g12
(g13
(I0
tp605
g15
tp606
Rp607
(I1
(L6L
tp608
g34
I00
S'>\x00\x00\x00=\x00\x00\x00;\x00\x00\x007\x00\x00\x00/\x00\x00\x00\x1f\x00\x00\x00'
p609
tp610
bsbsS'TAC'
p611
g2
(g3
g4
Ntp612
Rp613
(dp614
g8
I23252
sg9
I43
sg10
L4294967296L
sg11
g12
(g13
(I0
tp615
g15
tp616
Rp617
(I1
(L7L
tp618
g22
I00
S'\x01\x01\x01\x00\x00\x01\x01'
p619
tp620
bsg27
g12
(g13
(I0
tp621
g15
tp622
Rp623
(I1
(L7L
tp624
g34
I00
S'>\x00\x00\x00=\x00\x00\x00;\x00\x00\x007\x00\x00\x00.\x00\x00\x00\x1c\x00\x00\x00\x03\x00\x00\x00'
p625
tp626
bsbsS'GAG'
p627
g2
(g3
g4
Ntp628
Rp629
(dp630
g8
I37534
sg9
I44
sg10
L4294967296L
sg11
g12
(g13
(I0
tp631
g15
tp632
Rp633
(I1
(L6L
tp634
g22
I00
S'\x01\x01\x00\x00\x00\x01'
p635
tp636
bsg27
g12
(g13
(I0
tp637
g15
tp638
Rp639
(I1
(L6L
tp640
g34
I00
S'>\x00\x00\x00=\x00\x00\x00;\x00\x00\x006\x00\x00\x00,\x00\x00\x00\x18\x00\x00\x00'
p641
tp642
bsbsS'TCG'
p643
g2
(g3
g4
Ntp644
Rp645
(dp646
g8
I46918
sg9
I45
sg10
L4294967296L
sg11
g12
(g13
(I0
tp647
g15
tp648
Rp649
(I1
(L6L
tp650
g22
I00
S'\x01\x01\x01\x00\x01\x01'
p651
tp652
bsg27
g337
sbsS'TTA'
p653
g2
(g3
g4
Ntp654
Rp655
(dp656
g8
I22289
sg9
I46
sg10
L4294967296L
sg11
g12
(g13
(I0
tp657
g15
tp658
Rp659
(I1
(L7L
tp660
g22
I00
S'\x01\x01\x01\x00\x00\x00\x00'
p661
tp662
bsg27
g12
(g13
(I0
tp663
g15
tp664
Rp665
(I1
(L7L
tp666
g34
I00
S'>\x00\x00\x00=\x00\x00\x00;\x00\x00\x007\x00\x00\x00.\x00\x00\x00\x1c\x00\x00\x00\x02\x00\x00\x00'
p667
tp668
bsbsS'TTG'
p669
g2
(g3
g4
Ntp670
Rp671
(dp672
g8
I27912
sg9
I47
sg10
L4294967296L
sg11
g12
(g13
(I0
tp673
g15
tp674
Rp675
(I1
(L6L
tp676
g22
I00
S'\x00\x00\x01\x01\x00\x00'
p677
tp678
bsg27
g395
sbsS'CGT'
p679
g2
(g3
g4
Ntp680
Rp681
(dp682
g8
I34466
sg9
I48
sg10
L4294967296L
sg11
g12
(g13
(I0
tp683
g15
tp684
Rp685
(I1
(L6L
tp686
g22
I00
S'\x01\x00\x00\x00\x01\x00'
p687
tp688
bsg27
g83
sbsS'GAA'
p689
g2
(g3
g4
Ntp690
Rp691
(dp692
g8
I37180
sg9
I49
sg10
L4294967296L
sg11
g12
(g13
(I0
tp693
g15
tp694
Rp695
(I1
(L6L
tp696
g22
I00
S'\x01\x00\x01\x01\x01\x00'
p697
tp698
bsg27
g221
sbsS'TCA'
p699
g2
(g3
g4
Ntp700
Rp701
(dp702
g8
I32014
sg9
I50
sg10
L4294967296L
sg11
g12
(g13
(I0
tp703
g15
tp704
Rp705
(I1
(L6L
tp706
g22
I00
S'\x00\x01\x01\x00\x00\x00'
p707
tp708
bsg27
g12
(g13
(I0
tp709
g15
tp710
Rp711
(I1
(L6L
tp712
g34
I00
S'>\x00\x00\x00<\x00\x00\x009\x00\x00\x003\x00\x00\x00&\x00\x00\x00\x0c\x00\x00\x00'
p713
tp714
bsbsS'GCA'
p715
g2
(g3
g4
Ntp716
Rp717
(dp718
g8
I36573
sg9
I51
sg10
L4294967296L
sg11
g12
(g13
(I0
tp719
g15
tp720
Rp721
(I1
(L6L
tp722
g22
I00
S'\x01\x00\x01\x01\x00\x01'
p723
tp724
bsg27
g551
sbsS'GTA'
p725
g2
(g3
g4
Ntp726
Rp727
(dp728
g8
I23047
sg9
I52
sg10
L4294967296L
sg11
g12
(g13
(I0
tp729
g15
tp730
Rp731
(I1
(L7L
tp732
g22
I00
S'\x01\x01\x01\x00\x00\x01\x00'
p733
tp734
bsg27
g623
sbsS'GCC'
p735
g2
(g3
g4
Ntp736
Rp737
(dp738
g8
I48812
sg9
I53
sg10
L4294967296L
sg11
g12
(g13
(I0
tp739
g15
tp740
Rp741
(I1
(L6L
tp742
g22
I00
S'\x01\x01\x01\x01\x01\x00'
p743
tp744
bsg27
g607
sbsS'GTC'
p745
g2
(g3
g4
Ntp746
Rp747
(dp748
g8
I35781
sg9
I54
sg10
L4294967296L
sg11
g12
(g13
(I0
tp749
g15
tp750
Rp751
(I1
(L6L
tp752
g22
I00
S'\x01\x00\x01\x00\x01\x00'
p753
tp754
bsg27
g12
(g13
(I0
tp755
g15
tp756
Rp757
(I1
(L6L
tp758
g34
I00
S'>\x00\x00\x00=\x00\x00\x00:\x00\x00\x005\x00\x00\x00*\x00\x00\x00\x15\x00\x00\x00'
p759
tp760
bsbsS'GCG'
p761
g2
(g3
g4
Ntp762
Rp763
(dp764
g8
I51511
sg9
I55
sg10
L4294967296L
sg11
g12
(g13
(I0
tp765
g15
tp766
Rp767
(I1
(L5L
tp768
g22
I00
S'\x00\x00\x00\x00\x01'
p769
tp770
bsg27
g12
(g13
(I0
tp771
g15
tp772
Rp773
(I1
(L5L
tp774
g34
I00
S'>\x00\x00\x00<\x00\x00\x008\x00\x00\x000\x00\x00\x00 \x00\x00\x00'
p775
tp776
bsbsS'GTG'
p777
g2
(g3
g4
Ntp778
Rp779
(dp780
g8
I34680
sg9
I56
sg10
L4294967296L
sg11
g12
(g13
(I0
tp781
g15
tp782
Rp783
(I1
(L6L
tp784
g22
I00
S'\x01\x00\x00\x01\x00\x00'
p785
tp786
bsg27
g321
sbsS'TTC'
p787
g2
(g3
g4
Ntp788
Rp789
(dp790
g8
I37486
sg9
I57
sg10
L4294967296L
sg11
g12
(g13
(I0
tp791
g15
tp792
Rp793
(I1
(L6L
tp794
g22
I00
S'\x01\x01\x00\x00\x00\x00'
p795
tp796
bsg27
g639
sbsS'GTT'
p797
g2
(g3
g4
Ntp798
Rp799
(dp800
g8
I24988
sg9
I58
sg10
L4294967296L
sg11
g12
(g13
(I0
tp801
g15
tp802
Rp803
(I1
(L6L
tp804
g22
I00
S'\x00\x00\x00\x00\x00\x00'
p805
tp806
bsg27
g115
sbsS'GCT'
p807
g2
(g3
g4
Ntp808
Rp809
(dp810
g8
I35645
sg9
I59
sg10
L4294967296L
sg11
g12
(g13
(I0
tp811
g15
tp812
Rp813
(I1
(L6L
tp814
g22
I00
S'\x01\x00\x01\x00\x00\x00'
p815
tp816
bsg27
g273
sbsS'TGA'
p817
g2
(g3
g4
Ntp818
Rp819
(dp820
g8
I32258
sg9
I39
sg10
L4294967296L
sg11
g12
(g13
(I0
tp821
g15
tp822
Rp823
(I1
(L6L
tp824
g22
I00
S'\x00\x01\x01\x00\x00\x01'
p825
tp826
bsg27
g711
sbsS'GAC'
p827
g2
(g3
g4
Ntp828
Rp829
(dp830
g8
I35807
sg9
I60
sg10
L4294967296L
sg11
g12
(g13
(I0
tp831
g15
tp832
Rp833
(I1
(L6L
tp834
g22
I00
S'\x01\x00\x01\x00\x01\x01'
p835
tp836
bsg27
g757
sbsS'TCC'
p837
g2
(g3
g4
Ntp838
Rp839
(dp840
g8
I33908
sg9
I61
sg10
L4294967296L
sg11
g12
(g13
(I0
tp841
g15
tp842
Rp843
(I1
(L6L
tp844
g22
I00
S'\x01\x00\x00\x00\x00\x01'
p845
tp846
bsg27
g30
sbsS'TAA'
p847
g2
(g3
g4
Ntp848
Rp849
(dp850
g8
I22336
sg9
I62
sg10
L4294967296L
sg11
g12
(g13
(I0
tp851
g15
tp852
Rp853
(I1
(L7L
tp854
g22
I00
S'\x01\x01\x01\x00\x00\x00\x01'
p855
tp856
bsg27
g665
sbsS'TCT'
p857
g2
(g3
g4
Ntp858
Rp859
(dp860
g8
I37940
sg9
I63
sg10
L4294967296L
sg11
g12
(g13
(I0
tp861
g15
tp862
Rp863
(I1
(L6L
tp864
g22
I00
S'\x01\x01\x00\x00\x01\x00'
p865
tp866
bsg27
g305
sbs.